target datalayout = "e-m:e-p270:32:32-p271:32:32-p272:64:64-i64:64-i128:128-f80:128-n8:16:32:64-S128"
target triple = "x86_64-unknown-linux-gnu"

%"class.proxygen::HeaderTable" = type { ptr, i32, i32, %"class.std::vector", i32, i32, i32, i8, %"class.folly::F14FastMap" }
%"class.std::vector" = type { %"struct.std::_Vector_base" }
%"struct.std::_Vector_base" = type { %"struct.std::_Vector_base<proxygen::HPACKHeader, std::allocator<proxygen::HPACKHeader>>::_Vector_impl" }
%"struct.std::_Vector_base<proxygen::HPACKHeader, std::allocator<proxygen::HPACKHeader>>::_Vector_impl" = type { %"struct.std::_Vector_base<proxygen::HPACKHeader, std::allocator<proxygen::HPACKHeader>>::_Vector_impl_data" }
%"struct.std::_Vector_base<proxygen::HPACKHeader, std::allocator<proxygen::HPACKHeader>>::_Vector_impl_data" = type { ptr, ptr, ptr }
%"class.folly::F14FastMap" = type { %"class.folly::f14::detail::F14VectorMapImpl" }
%"class.folly::f14::detail::F14VectorMapImpl" = type { %"class.folly::f14::detail::F14BasicMap" }
%"class.folly::f14::detail::F14BasicMap" = type { %"class.folly::f14::detail::F14Table" }
%"class.folly::f14::detail::F14Table" = type { %"class.folly::f14::detail::VectorContainerPolicy", ptr, %"struct.folly::f14::detail::SizeAndChunkShiftAndPackedBegin" }
%"class.folly::f14::detail::VectorContainerPolicy" = type { ptr }
%"struct.folly::f14::detail::SizeAndChunkShiftAndPackedBegin" = type { %"struct.folly::f14::detail::PackedSizeAndChunkShift" }
%"struct.folly::f14::detail::PackedSizeAndChunkShift" = type { i64 }

; Function Attrs: mustprogress uwtable
define noundef zeroext i1 @_ZNK8proxygen16QPACKHeaderTable7isValidEjj(ptr noundef nonnull align 8 dereferenceable(104) %this, i32 noundef %index, i32 noundef %base) #4 align 2 {
entry:
  %this.addr = alloca ptr, align 8
  %index.addr = alloca i32, align 4
  %base.addr = alloca i32, align 4
  %testIndex = alloca i64, align 8
  %baseOffset = alloca i64, align 8
  store ptr %this, ptr %this.addr, align 8
  store i32 %index, ptr %index.addr, align 4
  store i32 %base, ptr %base.addr, align 4
  %this1 = load ptr, ptr %this.addr, align 8
  %0 = load i32, ptr %index.addr, align 4
  %conv = zext i32 %0 to i64
  store i64 %conv, ptr %testIndex, align 8
  %1 = load i32, ptr %base.addr, align 4
  %cmp = icmp ugt i32 %1, 0
  br i1 %cmp, label %if.then, label %if.end

if.then:                                          ; preds = %entry
  %2 = load i32, ptr %base.addr, align 4
  %conv2 = zext i32 %2 to i64
  %insertCount_ = getelementptr inbounds %"class.proxygen::HeaderTable", ptr %this1, i32 0, i32 6
  %3 = load i32, ptr %insertCount_, align 8
  %conv3 = zext i32 %3 to i64
  %sub = sub nsw i64 %conv2, %conv3
  store i64 %sub, ptr %baseOffset, align 8
  %4 = load i64, ptr %baseOffset, align 8
  %5 = load i64, ptr %testIndex, align 8
  %sub4 = sub nsw i64 %5, %4
  store i64 %sub4, ptr %testIndex, align 8
  br label %if.end

if.end:                                           ; preds = %if.then, %entry
  %6 = load i64, ptr %testIndex, align 8
  %conv5 = trunc i64 %6 to i32
  %call = call noundef zeroext i1 @_ZNK8proxygen11HeaderTable7isValidEj(ptr noundef nonnull align 8 dereferenceable(80) %this1, i32 noundef %conv5)
  ret i1 %call
}