; Function Attrs: mustprogress uwtable
define noundef zeroext i1 @_ZNK8proxygen16QPACKHeaderTable7isValidEjj(ptr noundef nonnull align 8 dereferenceable(104) %this, i32 noundef %index, i32 noundef %base) local_unnamed_addr #3 align 2 {
entry:
  %cmp.not = icmp eq i32 %base, 0
  %insertCount_ = getelementptr inbounds i8, ptr %this, i64 48
  %0 = load i32, ptr %insertCount_, align 8
  %sub.neg = sub i32 %0, %base
  %sub4 = select i1 %cmp.not, i32 0, i32 %sub.neg
  %testIndex.0 = add i32 %sub4, %index
  %call = tail call noundef zeroext i1 @_ZNK8proxygen11HeaderTable7isValidEj(ptr noundef nonnull align 8 dereferenceable(80) %this, i32 noundef %testIndex.0)
  ret i1 %call
}